target datalayout = "e-m:e-p270:32:32-p271:32:32-p272:64:64-i64:64-i128:128-f80:128-n8:16:32:64-S128"
target triple = "x86_64-pc-linux-gnu"

%struct.H5O_link_t = type { i32, i8, i64, i32, ptr, %union.anon }
%union.anon = type { %struct.H5O_link_ud_t }
%struct.H5O_link_ud_t = type { ptr, i64 }
%struct.H5O_loc_t = type { ptr, i64, i8 }
%struct.H5O_link_hard_t = type { i64 }
%struct.H5G_loc_t = type { ptr, ptr }

@H5G_init_g = external global i8, align 1
@H5_libterm_g = external global i8, align 1
@.str = private unnamed_addr constant [101 x i8] c"generated/home/dtcxzyw/WorkSpace/Projects/compilers/llvm-opt-benchmark/bench/hdf5/hdf5/src/H5Glink.c\00", align 1
@H5E_CANTINIT_g = external global i64, align 8
@H5E_SYM_g = external global i64, align 8
@__func__.H5G__link_to_loc = private unnamed_addr constant [17 x i8] c"H5G__link_to_loc\00", align 1
@H5E_UNSUPPORTED_g = external global i64, align 8
@.str.14 = private unnamed_addr constant [18 x i8] c"unknown link type\00", align 1
@.str.15 = private unnamed_addr constant [16 x i8] c"cannot set name\00", align 1

; Function Attrs: nounwind uwtable
define i32 @H5G__link_to_loc(ptr noundef %0, ptr noundef %1, ptr noundef %2) #0 {
  %4 = alloca ptr, align 8
  %5 = alloca ptr, align 8
  %6 = alloca ptr, align 8
  %7 = alloca i32, align 4
  %8 = alloca i8, align 1
  store ptr %0, ptr %4, align 8, !tbaa !57
  store ptr %1, ptr %5, align 8, !tbaa !8
  store ptr %2, ptr %6, align 8, !tbaa !57
  call void @llvm.lifetime.start.p0(i64 4, ptr %7) #6
  store i32 0, ptr %7, align 4, !tbaa !11
  call void @llvm.lifetime.start.p0(i64 1, ptr %8) #6
  store i8 0, ptr %8, align 1, !tbaa !13
  %9 = load i8, ptr @H5G_init_g, align 1, !tbaa !13, !range !15, !noundef !16
  %10 = trunc i8 %9 to i1
  br i1 %10, label %15, label %11

11:                                               ; preds = %3
  %12 = load i8, ptr @H5_libterm_g, align 1, !tbaa !13, !range !15, !noundef !16
  %13 = trunc i8 %12 to i1
  %14 = xor i1 %13, true
  br label %15

15:                                               ; preds = %11, %3
  %16 = phi i1 [ true, %3 ], [ %14, %11 ]
  %17 = xor i1 %16, true
  %18 = xor i1 %17, true
  %19 = zext i1 %18 to i32
  %20 = sext i32 %19 to i64
  %21 = call i64 @llvm.expect.i64(i64 %20, i64 1)
  %22 = icmp ne i64 %21, 0
  br i1 %22, label %23, label %112

23:                                               ; preds = %15
  %24 = load ptr, ptr %5, align 8, !tbaa !8
  %25 = getelementptr inbounds nuw %struct.H5O_link_t, ptr %24, i32 0, i32 0
  %26 = load i32, ptr %25, align 8, !tbaa !28
  %27 = icmp sgt i32 %26, 1
  br i1 %27, label %28, label %52

28:                                               ; preds = %23
  %29 = load ptr, ptr %5, align 8, !tbaa !8
  %30 = getelementptr inbounds nuw %struct.H5O_link_t, ptr %29, i32 0, i32 0
  %31 = load i32, ptr %30, align 8, !tbaa !28
  %32 = icmp slt i32 %31, 64
  br i1 %32, label %33, label %52

33:                                               ; preds = %28
  br label %34

34:                                               ; preds = %33
  br label %35

35:                                               ; preds = %34
  br label %36

36:                                               ; preds = %35
  %37 = load i64, ptr @H5E_SYM_g, align 8, !tbaa !17
  %38 = load i64, ptr @H5E_UNSUPPORTED_g, align 8, !tbaa !17
  %39 = call i32 (ptr, ptr, i32, i64, i64, ptr, ...) @H5E_printf_stack(ptr noundef @.str, ptr noundef @__func__.H5G__link_to_loc, i32 noundef 423, i64 noundef %37, i64 noundef %38, ptr noundef @.str.14)
  br label %40

40:                                               ; preds = %36
  br label %41

41:                                               ; preds = %40
  store i8 1, ptr %8, align 1, !tbaa !13
  %42 = load i8, ptr %8, align 1, !tbaa !13, !range !15, !noundef !16
  %43 = trunc i8 %42 to i1
  %44 = zext i1 %43 to i8
  store i8 %44, ptr %8, align 1, !tbaa !13
  br label %45

45:                                               ; preds = %41
  br label %46

46:                                               ; preds = %45
  br label %47

47:                                               ; preds = %46
  store i32 -1, ptr %7, align 4, !tbaa !11
  br label %111

48:                                               ; No predecessors!
  br label %49

49:                                               ; preds = %48
  br label %50

50:                                               ; preds = %49
  br label %51

51:                                               ; preds = %50
  br label %52

52:                                               ; preds = %51, %28, %23
  %53 = load ptr, ptr %4, align 8, !tbaa !57
  %54 = getelementptr inbounds nuw %struct.H5G_loc_t, ptr %53, i32 0, i32 1
  %55 = load ptr, ptr %54, align 8, !tbaa !59
  %56 = load ptr, ptr %6, align 8, !tbaa !57
  %57 = getelementptr inbounds nuw %struct.H5G_loc_t, ptr %56, i32 0, i32 1
  %58 = load ptr, ptr %57, align 8, !tbaa !59
  %59 = load ptr, ptr %5, align 8, !tbaa !8
  %60 = getelementptr inbounds nuw %struct.H5O_link_t, ptr %59, i32 0, i32 4
  %61 = load ptr, ptr %60, align 8, !tbaa !36
  %62 = call i32 @H5G_name_set(ptr noundef %55, ptr noundef %58, ptr noundef %61)
  %63 = icmp slt i32 %62, 0
  br i1 %63, label %64, label %83

64:                                               ; preds = %52
  br label %65

65:                                               ; preds = %64
  br label %66

66:                                               ; preds = %65
  br label %67

67:                                               ; preds = %66
  %68 = load i64, ptr @H5E_SYM_g, align 8, !tbaa !17
  %69 = load i64, ptr @H5E_CANTINIT_g, align 8, !tbaa !17
  %70 = call i32 (ptr, ptr, i32, i64, i64, ptr, ...) @H5E_printf_stack(ptr noundef @.str, ptr noundef @__func__.H5G__link_to_loc, i32 noundef 427, i64 noundef %68, i64 noundef %69, ptr noundef @.str.15)
  br label %71

71:                                               ; preds = %67
  br label %72

72:                                               ; preds = %71
  store i8 1, ptr %8, align 1, !tbaa !13
  %73 = load i8, ptr %8, align 1, !tbaa !13, !range !15, !noundef !16
  %74 = trunc i8 %73 to i1
  %75 = zext i1 %74 to i8
  store i8 %75, ptr %8, align 1, !tbaa !13
  br label %76

76:                                               ; preds = %72
  br label %77

77:                                               ; preds = %76
  br label %78

78:                                               ; preds = %77
  store i32 -1, ptr %7, align 4, !tbaa !11
  br label %111

79:                                               ; No predecessors!
  br label %80

80:                                               ; preds = %79
  br label %81

81:                                               ; preds = %80
  br label %82

82:                                               ; preds = %81
  br label %83

83:                                               ; preds = %82, %52
  %84 = load ptr, ptr %4, align 8, !tbaa !57
  %85 = getelementptr inbounds nuw %struct.H5G_loc_t, ptr %84, i32 0, i32 0
  %86 = load ptr, ptr %85, align 8, !tbaa !62
  %87 = getelementptr inbounds nuw %struct.H5O_loc_t, ptr %86, i32 0, i32 0
  %88 = load ptr, ptr %87, align 8, !tbaa !30
  %89 = load ptr, ptr %6, align 8, !tbaa !57
  %90 = getelementptr inbounds nuw %struct.H5G_loc_t, ptr %89, i32 0, i32 0
  %91 = load ptr, ptr %90, align 8, !tbaa !62
  %92 = getelementptr inbounds nuw %struct.H5O_loc_t, ptr %91, i32 0, i32 0
  store ptr %88, ptr %92, align 8, !tbaa !30
  %93 = load ptr, ptr %6, align 8, !tbaa !57
  %94 = getelementptr inbounds nuw %struct.H5G_loc_t, ptr %93, i32 0, i32 0
  %95 = load ptr, ptr %94, align 8, !tbaa !62
  %96 = getelementptr inbounds nuw %struct.H5O_loc_t, ptr %95, i32 0, i32 2
  store i8 0, ptr %96, align 8, !tbaa !63
  %97 = load ptr, ptr %5, align 8, !tbaa !8
  %98 = getelementptr inbounds nuw %struct.H5O_link_t, ptr %97, i32 0, i32 0
  %99 = load i32, ptr %98, align 8, !tbaa !28
  %100 = icmp eq i32 %99, 0
  br i1 %100, label %101, label %110

101:                                              ; preds = %83
  %102 = load ptr, ptr %5, align 8, !tbaa !8
  %103 = getelementptr inbounds nuw %struct.H5O_link_t, ptr %102, i32 0, i32 5
  %104 = getelementptr inbounds nuw %struct.H5O_link_hard_t, ptr %103, i32 0, i32 0
  %105 = load i64, ptr %104, align 8, !tbaa !33
  %106 = load ptr, ptr %6, align 8, !tbaa !57
  %107 = getelementptr inbounds nuw %struct.H5G_loc_t, ptr %106, i32 0, i32 0
  %108 = load ptr, ptr %107, align 8, !tbaa !62
  %109 = getelementptr inbounds nuw %struct.H5O_loc_t, ptr %108, i32 0, i32 1
  store i64 %105, ptr %109, align 8, !tbaa !50
  br label %110

110:                                              ; preds = %101, %83
  br label %111

111:                                              ; preds = %110, %78, %47
  br label %112

112:                                              ; preds = %111, %15
  %113 = load i32, ptr %7, align 4, !tbaa !11
  call void @llvm.lifetime.end.p0(i64 1, ptr %8) #6
  call void @llvm.lifetime.end.p0(i64 4, ptr %7) #6
  ret i32 %113
}