; Function Attrs: nounwind uwtable
define range(i32 -1, 1) i32 @H5G__link_to_loc(ptr noundef readonly captures(none) %0, ptr noundef readonly captures(none) %1, ptr noundef readonly captures(none) %2) local_unnamed_addr #0 {
  %4 = load i8, ptr @H5G_init_g, align 1, !tbaa !3, !range !7, !noundef !8
  %5 = trunc nuw i8 %4 to i1
  %6 = load i8, ptr @H5_libterm_g, align 1, !range !7
  %7 = trunc nuw i8 %6 to i1
  %8 = xor i1 %7, true
  %9 = select i1 %5, i1 true, i1 %8
  br i1 %9, label %10, label %41, !prof !9

10:                                               ; preds = %3
  %11 = load i32, ptr %1, align 8, !tbaa !24
  %12 = add i32 %11, -2
  %or.cond = icmp ult i32 %12, 62
  br i1 %or.cond, label %13, label %17

13:                                               ; preds = %10
  %14 = load i64, ptr @H5E_SYM_g, align 8, !tbaa !10
  %15 = load i64, ptr @H5E_UNSUPPORTED_g, align 8, !tbaa !10
  %16 = tail call i32 (ptr, ptr, i32, i64, i64, ptr, ...) @H5E_printf_stack(ptr noundef nonnull @.str, ptr noundef nonnull @__func__.H5G__link_to_loc, i32 noundef 423, i64 noundef %14, i64 noundef %15, ptr noundef nonnull @.str.14) #9
  br label %41

17:                                               ; preds = %10
  %18 = getelementptr inbounds nuw i8, ptr %0, i64 8
  %19 = load ptr, ptr %18, align 8, !tbaa !44
  %20 = getelementptr inbounds nuw i8, ptr %2, i64 8
  %21 = load ptr, ptr %20, align 8, !tbaa !44
  %22 = getelementptr inbounds nuw i8, ptr %1, i64 24
  %23 = load ptr, ptr %22, align 8, !tbaa !32
  %24 = tail call i32 @H5G_name_set(ptr noundef %19, ptr noundef %21, ptr noundef %23) #9
  %25 = icmp slt i32 %24, 0
  br i1 %25, label %26, label %30

26:                                               ; preds = %17
  %27 = load i64, ptr @H5E_SYM_g, align 8, !tbaa !10
  %28 = load i64, ptr @H5E_CANTINIT_g, align 8, !tbaa !10
  %29 = tail call i32 (ptr, ptr, i32, i64, i64, ptr, ...) @H5E_printf_stack(ptr noundef nonnull @.str, ptr noundef nonnull @__func__.H5G__link_to_loc, i32 noundef 427, i64 noundef %27, i64 noundef %28, ptr noundef nonnull @.str.15) #9
  br label %41

30:                                               ; preds = %17
  %31 = load ptr, ptr %0, align 8, !tbaa !48
  %32 = load ptr, ptr %31, align 8, !tbaa !26
  %33 = load ptr, ptr %2, align 8, !tbaa !48
  store ptr %32, ptr %33, align 8, !tbaa !26
  %34 = getelementptr inbounds nuw i8, ptr %33, i64 16
  store i8 0, ptr %34, align 8, !tbaa !49
  %35 = load i32, ptr %1, align 8, !tbaa !24
  %36 = icmp eq i32 %35, 0
  br i1 %36, label %37, label %41

37:                                               ; preds = %30
  %38 = getelementptr inbounds nuw i8, ptr %1, i64 32
  %39 = load i64, ptr %38, align 8, !tbaa !29
  %40 = getelementptr inbounds nuw i8, ptr %33, i64 8
  store i64 %39, ptr %40, align 8, !tbaa !39
  br label %41

41:                                               ; preds = %13, %26, %37, %30, %3
  %.0 = phi i32 [ -1, %13 ], [ -1, %26 ], [ 0, %37 ], [ 0, %30 ], [ 0, %3 ]
  ret i32 %.0
}